target datalayout = "e-m:e-p270:32:32-p271:32:32-p272:64:64-i64:64-i128:128-f80:128-n8:16:32:64-S128"
target triple = "x86_64-pc-linux-gnu"

%"class.std::__cxx11::basic_string" = type { %"struct.std::__cxx11::basic_string<char>::_Alloc_hider", i64, %union.anon }
%"struct.std::__cxx11::basic_string<char>::_Alloc_hider" = type { ptr }
%union.anon = type { i64, [8 x i8] }
%"class.std::basic_ios" = type { %"class.std::ios_base", ptr, i8, i8, ptr, ptr, ptr, ptr }
%"class.std::ios_base" = type { ptr, i64, i64, i32, i32, i32, ptr, %"struct.std::ios_base::_Words", [8 x %"struct.std::ios_base::_Words"], i32, ptr, %"class.std::locale" }
%"struct.std::ios_base::_Words" = type { ptr, i64 }
%"class.std::locale" = type { ptr }
%class.cmGraphVizWriter = type <{ %class.cmLinkItemGraphVisitor, %"class.std::__cxx11::basic_string", %class.cmGeneratedFileStream, %"class.std::map", %"class.std::map", %"class.std::__cxx11::basic_string", %"class.std::__cxx11::basic_string", %"class.std::__cxx11::basic_string", %"class.std::vector", ptr, i32, [4 x i8], %"class.std::map.22", i8, i8, i8, i8, i8, i8, i8, i8, i8, i8, i8, [5 x i8] }>
%class.cmLinkItemGraphVisitor = type { ptr, %"class.std::set", %"class.std::set.3" }
%"class.std::set" = type { %"class.std::_Rb_tree" }
%"class.std::_Rb_tree" = type { %"struct.std::_Rb_tree<std::__cxx11::basic_string<char>, std::__cxx11::basic_string<char>, std::_Identity<std::__cxx11::basic_string<char>>, std::less<std::__cxx11::basic_string<char>>>::_Rb_tree_impl" }
%"struct.std::_Rb_tree<std::__cxx11::basic_string<char>, std::__cxx11::basic_string<char>, std::_Identity<std::__cxx11::basic_string<char>>, std::less<std::__cxx11::basic_string<char>>>::_Rb_tree_impl" = type { %"struct.std::_Rb_tree_key_compare", %"struct.std::_Rb_tree_header" }
%"struct.std::_Rb_tree_key_compare" = type { %"struct.std::less" }
%"struct.std::less" = type { i8 }
%"struct.std::_Rb_tree_header" = type { %"struct.std::_Rb_tree_node_base", i64 }
%"struct.std::_Rb_tree_node_base" = type { i32, ptr, ptr, ptr }
%"class.std::set.3" = type { %"class.std::_Rb_tree.4" }
%"class.std::_Rb_tree.4" = type { %"struct.std::_Rb_tree<std::pair<std::__cxx11::basic_string<char>, std::__cxx11::basic_string<char>>, std::pair<std::__cxx11::basic_string<char>, std::__cxx11::basic_string<char>>, std::_Identity<std::pair<std::__cxx11::basic_string<char>, std::__cxx11::basic_string<char>>>, std::less<std::pair<std::__cxx11::basic_string<char>, std::__cxx11::basic_string<char>>>>::_Rb_tree_impl" }
%"struct.std::_Rb_tree<std::pair<std::__cxx11::basic_string<char>, std::__cxx11::basic_string<char>>, std::pair<std::__cxx11::basic_string<char>, std::__cxx11::basic_string<char>>, std::_Identity<std::pair<std::__cxx11::basic_string<char>, std::__cxx11::basic_string<char>>>, std::less<std::pair<std::__cxx11::basic_string<char>, std::__cxx11::basic_string<char>>>>::_Rb_tree_impl" = type { %"struct.std::_Rb_tree_key_compare.8", %"struct.std::_Rb_tree_header" }
%"struct.std::_Rb_tree_key_compare.8" = type { %"struct.std::less.9" }
%"struct.std::less.9" = type { i8 }
%class.cmGeneratedFileStream = type <{ %"class.std::basic_ofstream.base", %class.cmGeneratedFileStreamBase.base, [4 x i8], %"class.std::basic_ios" }>
%"class.std::basic_ofstream.base" = type { %"class.std::basic_ostream.base", %"class.std::basic_filebuf" }
%"class.std::basic_ostream.base" = type { ptr }
%"class.std::basic_filebuf" = type { %"class.std::basic_streambuf", %union.pthread_mutex_t, %"class.std::__basic_file", i32, %struct.__mbstate_t, %struct.__mbstate_t, %struct.__mbstate_t, ptr, i64, i8, i8, i8, i8, ptr, ptr, i8, ptr, ptr, i64, ptr, ptr }
%"class.std::basic_streambuf" = type { ptr, ptr, ptr, ptr, ptr, ptr, ptr, %"class.std::locale" }
%union.pthread_mutex_t = type { %struct.__pthread_mutex_s }
%struct.__pthread_mutex_s = type { i32, i32, i32, i32, i32, i16, i16, %struct.__pthread_internal_list }
%struct.__pthread_internal_list = type { ptr, ptr }
%"class.std::__basic_file" = type <{ ptr, i8, [7 x i8] }>
%struct.__mbstate_t = type { i32, %union.anon.11 }
%union.anon.11 = type { i32 }
%class.cmGeneratedFileStreamBase.base = type <{ %"class.std::__cxx11::basic_string", %"class.std::__cxx11::basic_string", %"class.std::__cxx11::basic_string", i8, i8, i8, i8 }>
%"class.std::map" = type { %"class.std::_Rb_tree.12" }
%"class.std::_Rb_tree.12" = type { %"struct.std::_Rb_tree<cmLinkItem, std::pair<const cmLinkItem, std::vector<cmGraphVizWriter::Connection>>, std::_Select1st<std::pair<const cmLinkItem, std::vector<cmGraphVizWriter::Connection>>>, std::less<cmLinkItem>>::_Rb_tree_impl" }
%"struct.std::_Rb_tree<cmLinkItem, std::pair<const cmLinkItem, std::vector<cmGraphVizWriter::Connection>>, std::_Select1st<std::pair<const cmLinkItem, std::vector<cmGraphVizWriter::Connection>>>, std::less<cmLinkItem>>::_Rb_tree_impl" = type { %"struct.std::_Rb_tree_key_compare.16", %"struct.std::_Rb_tree_header" }
%"struct.std::_Rb_tree_key_compare.16" = type { %"struct.std::less.17" }
%"struct.std::less.17" = type { i8 }
%"class.std::vector" = type { %"struct.std::_Vector_base" }
%"struct.std::_Vector_base" = type { %"struct.std::_Vector_base<cmsys::RegularExpression, std::allocator<cmsys::RegularExpression>>::_Vector_impl" }
%"struct.std::_Vector_base<cmsys::RegularExpression, std::allocator<cmsys::RegularExpression>>::_Vector_impl" = type { %"struct.std::_Vector_base<cmsys::RegularExpression, std::allocator<cmsys::RegularExpression>>::_Vector_impl_data" }
%"struct.std::_Vector_base<cmsys::RegularExpression, std::allocator<cmsys::RegularExpression>>::_Vector_impl_data" = type { ptr, ptr, ptr }
%"class.std::map.22" = type { %"class.std::_Rb_tree.23" }
%"class.std::_Rb_tree.23" = type { %"struct.std::_Rb_tree<std::__cxx11::basic_string<char>, std::pair<const std::__cxx11::basic_string<char>, std::__cxx11::basic_string<char>>, std::_Select1st<std::pair<const std::__cxx11::basic_string<char>, std::__cxx11::basic_string<char>>>, std::less<std::__cxx11::basic_string<char>>>::_Rb_tree_impl" }
%"struct.std::_Rb_tree<std::__cxx11::basic_string<char>, std::pair<const std::__cxx11::basic_string<char>, std::__cxx11::basic_string<char>>, std::_Select1st<std::pair<const std::__cxx11::basic_string<char>, std::__cxx11::basic_string<char>>>, std::less<std::__cxx11::basic_string<char>>>::_Rb_tree_impl" = type { %"struct.std::_Rb_tree_key_compare", %"struct.std::_Rb_tree_header" }

; Function Attrs: mustprogress nounwind uwtable
define dso_local noundef zeroext i1 @_ZNK16cmGraphVizWriter17TargetTypeEnabledEN12cmStateEnums10TargetTypeE(ptr noundef nonnull align 8 dereferenceable(1043) %0, i32 noundef %1) #5 align 2 {
  %3 = alloca i1, align 1
  %4 = alloca ptr, align 8
  %5 = alloca i32, align 4
  store ptr %0, ptr %4, align 8
  store i32 %1, ptr %5, align 4
  %6 = load ptr, ptr %4, align 8
  %7 = load i32, ptr %5, align 4
  switch i32 %7, label %41 [
    i32 0, label %8
    i32 1, label %12
    i32 2, label %16
    i32 3, label %20
    i32 7, label %24
    i32 4, label %28
    i32 8, label %32
    i32 5, label %36
    i32 6, label %40
  ]

8:                                                ; preds = %2
  %9 = getelementptr inbounds %class.cmGraphVizWriter, ptr %6, i32 0, i32 13
  %10 = load i8, ptr %9, align 8
  %11 = trunc i8 %10 to i1
  store i1 %11, ptr %3, align 1
  br label %43

12:                                               ; preds = %2
  %13 = getelementptr inbounds %class.cmGraphVizWriter, ptr %6, i32 0, i32 14
  %14 = load i8, ptr %13, align 1
  %15 = trunc i8 %14 to i1
  store i1 %15, ptr %3, align 1
  br label %43

16:                                               ; preds = %2
  %17 = getelementptr inbounds %class.cmGraphVizWriter, ptr %6, i32 0, i32 15
  %18 = load i8, ptr %17, align 2
  %19 = trunc i8 %18 to i1
  store i1 %19, ptr %3, align 1
  br label %43

20:                                               ; preds = %2
  %21 = getelementptr inbounds %class.cmGraphVizWriter, ptr %6, i32 0, i32 16
  %22 = load i8, ptr %21, align 1
  %23 = trunc i8 %22 to i1
  store i1 %23, ptr %3, align 1
  br label %43

24:                                               ; preds = %2
  %25 = getelementptr inbounds %class.cmGraphVizWriter, ptr %6, i32 0, i32 17
  %26 = load i8, ptr %25, align 4
  %27 = trunc i8 %26 to i1
  store i1 %27, ptr %3, align 1
  br label %43

28:                                               ; preds = %2
  %29 = getelementptr inbounds %class.cmGraphVizWriter, ptr %6, i32 0, i32 18
  %30 = load i8, ptr %29, align 1
  %31 = trunc i8 %30 to i1
  store i1 %31, ptr %3, align 1
  br label %43

32:                                               ; preds = %2
  %33 = getelementptr inbounds %class.cmGraphVizWriter, ptr %6, i32 0, i32 19
  %34 = load i8, ptr %33, align 2
  %35 = trunc i8 %34 to i1
  store i1 %35, ptr %3, align 1
  br label %43

36:                                               ; preds = %2
  %37 = getelementptr inbounds %class.cmGraphVizWriter, ptr %6, i32 0, i32 20
  %38 = load i8, ptr %37, align 1
  %39 = trunc i8 %38 to i1
  store i1 %39, ptr %3, align 1
  br label %43

40:                                               ; preds = %2
  store i1 false, ptr %3, align 1
  br label %43

41:                                               ; preds = %2
  br label %42

42:                                               ; preds = %41
  store i1 false, ptr %3, align 1
  br label %43

43:                                               ; preds = %42, %40, %36, %32, %28, %24, %20, %16, %12, %8
  %44 = load i1, ptr %3, align 1
  ret i1 %44
}