; Function Attrs: mustprogress nofree norecurse nosync nounwind willreturn memory(argmem: read) uwtable
define dso_local noundef zeroext i1 @_ZNK16cmGraphVizWriter17TargetTypeEnabledEN12cmStateEnums10TargetTypeE(ptr nocapture noundef nonnull readonly align 8 dereferenceable(1043) %0, i32 noundef %1) local_unnamed_addr #7 align 2 {
  switch i32 %1, label %43 [
    i32 0, label %3
    i32 1, label %8
    i32 2, label %13
    i32 3, label %18
    i32 7, label %23
    i32 4, label %28
    i32 8, label %33
    i32 5, label %38
  ]

3:                                                ; preds = %2
  %4 = getelementptr inbounds i8, ptr %0, i64 1032
  %5 = load i8, ptr %4, align 8
  %6 = and i8 %5, 1
  %7 = icmp ne i8 %6, 0
  br label %43

8:                                                ; preds = %2
  %9 = getelementptr inbounds i8, ptr %0, i64 1033
  %10 = load i8, ptr %9, align 1
  %11 = and i8 %10, 1
  %12 = icmp ne i8 %11, 0
  br label %43

13:                                               ; preds = %2
  %14 = getelementptr inbounds i8, ptr %0, i64 1034
  %15 = load i8, ptr %14, align 2
  %16 = and i8 %15, 1
  %17 = icmp ne i8 %16, 0
  br label %43

18:                                               ; preds = %2
  %19 = getelementptr inbounds i8, ptr %0, i64 1035
  %20 = load i8, ptr %19, align 1
  %21 = and i8 %20, 1
  %22 = icmp ne i8 %21, 0
  br label %43

23:                                               ; preds = %2
  %24 = getelementptr inbounds i8, ptr %0, i64 1036
  %25 = load i8, ptr %24, align 4
  %26 = and i8 %25, 1
  %27 = icmp ne i8 %26, 0
  br label %43

28:                                               ; preds = %2
  %29 = getelementptr inbounds i8, ptr %0, i64 1037
  %30 = load i8, ptr %29, align 1
  %31 = and i8 %30, 1
  %32 = icmp ne i8 %31, 0
  br label %43

33:                                               ; preds = %2
  %34 = getelementptr inbounds i8, ptr %0, i64 1038
  %35 = load i8, ptr %34, align 2
  %36 = and i8 %35, 1
  %37 = icmp ne i8 %36, 0
  br label %43

38:                                               ; preds = %2
  %39 = getelementptr inbounds i8, ptr %0, i64 1039
  %40 = load i8, ptr %39, align 1
  %41 = and i8 %40, 1
  %42 = icmp ne i8 %41, 0
  br label %43

43:                                               ; preds = %2, %38, %33, %28, %23, %18, %13, %8, %3
  %.0 = phi i1 [ %42, %38 ], [ %37, %33 ], [ %32, %28 ], [ %27, %23 ], [ %22, %18 ], [ %17, %13 ], [ %12, %8 ], [ %7, %3 ], [ false, %2 ]
  ret i1 %.0
}